target datalayout = "e-m:e-p270:32:32-p271:32:32-p272:64:64-i64:64-i128:128-f80:128-n8:16:32:64-S128"
target triple = "x86_64-pc-linux-gnu"

; Function Attrs: nounwind uwtable
define internal zeroext i16 @validateThreadFrame(ptr noundef %0, i64 noundef %1) #0 {
  %3 = alloca ptr, align 8
  %4 = alloca i64, align 8
  %5 = alloca i32, align 4
  %6 = alloca i16, align 2
  %7 = alloca i32, align 4
  store ptr %0, ptr %3, align 8
  store i64 %1, ptr %4, align 8
  %8 = load ptr, ptr %3, align 8
  %9 = call i32 @threadControl_suspendCount(ptr noundef %8, ptr noundef %7)
  store i32 %9, ptr %5, align 4
  %10 = load i32, ptr %5, align 4
  %11 = icmp eq i32 %10, 0
  br i1 %11, label %12, label %21

12:                                               ; preds = %2
  %13 = load i32, ptr %7, align 4
  %14 = icmp sgt i32 %13, 0
  br i1 %14, label %15, label %19

15:                                               ; preds = %12
  %16 = load ptr, ptr %3, align 8
  %17 = load i64, ptr %4, align 8
  %18 = call zeroext i16 @validateFrameID(ptr noundef %16, i64 noundef %17)
  store i16 %18, ptr %6, align 2
  br label %20

19:                                               ; preds = %12
  store i16 13, ptr %6, align 2
  br label %20

20:                                               ; preds = %19, %15
  br label %24

21:                                               ; preds = %2
  %22 = load i32, ptr %5, align 4
  %23 = call zeroext i16 @map2jdwpError(i32 noundef %22)
  store i16 %23, ptr %6, align 2
  br label %24

24:                                               ; preds = %21, %20
  %25 = load i16, ptr %6, align 2
  ret i16 %25
}

; Function Attrs: nounwind uwtable
define internal zeroext i8 @popFrames(ptr noundef %0, ptr noundef %1) #0 {
  %3 = alloca i8, align 1
  %4 = alloca ptr, align 8
  %5 = alloca ptr, align 8
  %6 = alloca i32, align 4
  %7 = alloca i16, align 2
  %8 = alloca ptr, align 8
  %9 = alloca i64, align 8
  %10 = alloca i32, align 4
  store ptr %0, ptr %4, align 8
  store ptr %1, ptr %5, align 8
  %11 = call ptr @getEnv()
  %12 = load ptr, ptr %4, align 8
  %13 = call ptr @inStream_readThreadRef(ptr noundef %11, ptr noundef %12)
  store ptr %13, ptr %8, align 8
  %14 = load ptr, ptr %4, align 8
  %15 = call zeroext i16 @inStream_error(ptr noundef %14)
  %16 = icmp ne i16 %15, 0
  br i1 %16, label %17, label %18

17:                                               ; preds = %2
  store i8 1, ptr %3, align 1
  br label %55

18:                                               ; preds = %2
  %19 = load ptr, ptr %4, align 8
  %20 = call i64 @inStream_readFrameID(ptr noundef %19)
  store i64 %20, ptr %9, align 8
  %21 = load ptr, ptr %4, align 8
  %22 = call zeroext i16 @inStream_error(ptr noundef %21)
  %23 = icmp ne i16 %22, 0
  br i1 %23, label %24, label %25

24:                                               ; preds = %18
  store i8 1, ptr %3, align 1
  br label %55

25:                                               ; preds = %18
  %26 = load ptr, ptr %8, align 8
  %27 = load i64, ptr %9, align 8
  %28 = call zeroext i16 @validateThreadFrame(ptr noundef %26, i64 noundef %27)
  store i16 %28, ptr %7, align 2
  %29 = load i16, ptr %7, align 2
  %30 = zext i16 %29 to i32
  %31 = icmp ne i32 %30, 0
  br i1 %31, label %32, label %35

32:                                               ; preds = %25
  %33 = load ptr, ptr %5, align 8
  %34 = load i16, ptr %7, align 2
  call void @outStream_setError(ptr noundef %33, i16 noundef zeroext %34)
  store i8 1, ptr %3, align 1
  br label %55

35:                                               ; preds = %25
  %36 = load ptr, ptr %8, align 8
  %37 = call zeroext i8 @threadControl_isDebugThread(ptr noundef %36)
  %38 = icmp ne i8 %37, 0
  br i1 %38, label %39, label %41

39:                                               ; preds = %35
  %40 = load ptr, ptr %5, align 8
  call void @outStream_setError(ptr noundef %40, i16 noundef zeroext 10)
  store i8 1, ptr %3, align 1
  br label %55

41:                                               ; preds = %35
  %42 = load i64, ptr %9, align 8
  %43 = call i32 @getFrameNumber(i64 noundef %42)
  store i32 %43, ptr %10, align 4
  %44 = load ptr, ptr %8, align 8
  %45 = load i32, ptr %10, align 4
  %46 = call i32 @threadControl_popFrames(ptr noundef %44, i32 noundef %45)
  store i32 %46, ptr %6, align 4
  %47 = load i32, ptr %6, align 4
  %48 = icmp ne i32 %47, 0
  br i1 %48, label %49, label %54

49:                                               ; preds = %41
  %50 = load i32, ptr %6, align 4
  %51 = call zeroext i16 @map2jdwpError(i32 noundef %50)
  store i16 %51, ptr %7, align 2
  %52 = load ptr, ptr %5, align 8
  %53 = load i16, ptr %7, align 2
  call void @outStream_setError(ptr noundef %52, i16 noundef zeroext %53)
  br label %54

54:                                               ; preds = %49, %41
  store i8 1, ptr %3, align 1
  br label %55

55:                                               ; preds = %54, %39, %32, %24, %17
  %56 = load i8, ptr %3, align 1
  ret i8 %56
}