; Function Attrs: nounwind uwtable
define internal noundef zeroext i8 @popFrames(ptr noundef %0, ptr noundef %1) #0 {
  %3 = alloca i32, align 4
  %4 = tail call ptr @getEnv() #3
  %5 = tail call ptr @inStream_readThreadRef(ptr noundef %4, ptr noundef %0) #3
  %6 = tail call zeroext i16 @inStream_error(ptr noundef %0) #3
  %.not = icmp eq i16 %6, 0
  br i1 %.not, label %7, label %27

7:                                                ; preds = %2
  %8 = tail call i64 @inStream_readFrameID(ptr noundef %0) #3
  %9 = tail call zeroext i16 @inStream_error(ptr noundef %0) #3
  %.not18 = icmp eq i16 %9, 0
  br i1 %.not18, label %10, label %27

10:                                               ; preds = %7
  call void @llvm.lifetime.start.p0(i64 4, ptr nonnull %3)
  %11 = call i32 @threadControl_suspendCount(ptr noundef %5, ptr noundef nonnull %3) #3
  %12 = icmp eq i32 %11, 0
  br i1 %12, label %13, label %18

13:                                               ; preds = %10
  %14 = load i32, ptr %3, align 4
  %15 = icmp sgt i32 %14, 0
  br i1 %15, label %16, label %validateThreadFrame.exit.thread

validateThreadFrame.exit.thread:                  ; preds = %13
  call void @llvm.lifetime.end.p0(i64 4, ptr nonnull %3)
  br label %.sink.split

16:                                               ; preds = %13
  %17 = call zeroext i16 @validateFrameID(ptr noundef %5, i64 noundef %8) #3
  br label %validateThreadFrame.exit

18:                                               ; preds = %10
  %19 = call zeroext i16 @map2jdwpError(i32 noundef %11) #3
  br label %validateThreadFrame.exit

validateThreadFrame.exit:                         ; preds = %16, %18
  %.0.i = phi i16 [ %17, %16 ], [ %19, %18 ]
  call void @llvm.lifetime.end.p0(i64 4, ptr nonnull %3)
  %.not19 = icmp eq i16 %.0.i, 0
  br i1 %.not19, label %20, label %.sink.split

20:                                               ; preds = %validateThreadFrame.exit
  %21 = call zeroext i8 @threadControl_isDebugThread(ptr noundef %5) #3
  %.not20 = icmp eq i8 %21, 0
  br i1 %.not20, label %22, label %.sink.split

22:                                               ; preds = %20
  %23 = call i32 @getFrameNumber(i64 noundef %8) #3
  %24 = call i32 @threadControl_popFrames(ptr noundef %5, i32 noundef %23) #3
  %.not21 = icmp eq i32 %24, 0
  br i1 %.not21, label %27, label %25

25:                                               ; preds = %22
  %26 = call zeroext i16 @map2jdwpError(i32 noundef %24) #3
  br label %.sink.split

.sink.split:                                      ; preds = %20, %validateThreadFrame.exit, %validateThreadFrame.exit.thread, %25
  %.sink = phi i16 [ %26, %25 ], [ 13, %validateThreadFrame.exit.thread ], [ %.0.i, %validateThreadFrame.exit ], [ 10, %20 ]
  call void @outStream_setError(ptr noundef %1, i16 noundef zeroext %.sink) #3
  br label %27

27:                                               ; preds = %.sink.split, %22, %7, %2
  ret i8 1
}